target datalayout = "e-m:e-p270:32:32-p271:32:32-p272:64:64-i64:64-i128:128-f80:128-n8:16:32:64-S128"
target triple = "x86_64-pc-linux-gnu"

%struct.s_chastore = type { ptr, ptr, i64, i64, ptr, ptr, i64 }

; Function Attrs: nounwind uwtable
define dso_local i32 @xdl_cha_init(ptr noundef %0, i64 noundef %1, i64 noundef %2) #0 {
  %4 = alloca ptr, align 8
  %5 = alloca i64, align 8
  %6 = alloca i64, align 8
  store ptr %0, ptr %4, align 8, !tbaa !31
  store i64 %1, ptr %5, align 8, !tbaa !4
  store i64 %2, ptr %6, align 8, !tbaa !4
  %7 = load ptr, ptr %4, align 8, !tbaa !31
  %8 = getelementptr inbounds nuw %struct.s_chastore, ptr %7, i32 0, i32 1
  store ptr null, ptr %8, align 8, !tbaa !33
  %9 = load ptr, ptr %4, align 8, !tbaa !31
  %10 = getelementptr inbounds nuw %struct.s_chastore, ptr %9, i32 0, i32 0
  store ptr null, ptr %10, align 8, !tbaa !36
  %11 = load i64, ptr %5, align 8, !tbaa !4
  %12 = load ptr, ptr %4, align 8, !tbaa !31
  %13 = getelementptr inbounds nuw %struct.s_chastore, ptr %12, i32 0, i32 2
  store i64 %11, ptr %13, align 8, !tbaa !37
  %14 = load i64, ptr %6, align 8, !tbaa !4
  %15 = load i64, ptr %5, align 8, !tbaa !4
  %16 = mul nsw i64 %14, %15
  %17 = load ptr, ptr %4, align 8, !tbaa !31
  %18 = getelementptr inbounds nuw %struct.s_chastore, ptr %17, i32 0, i32 3
  store i64 %16, ptr %18, align 8, !tbaa !38
  %19 = load ptr, ptr %4, align 8, !tbaa !31
  %20 = getelementptr inbounds nuw %struct.s_chastore, ptr %19, i32 0, i32 5
  store ptr null, ptr %20, align 8, !tbaa !39
  %21 = load ptr, ptr %4, align 8, !tbaa !31
  %22 = getelementptr inbounds nuw %struct.s_chastore, ptr %21, i32 0, i32 4
  store ptr null, ptr %22, align 8, !tbaa !40
  %23 = load ptr, ptr %4, align 8, !tbaa !31
  %24 = getelementptr inbounds nuw %struct.s_chastore, ptr %23, i32 0, i32 6
  store i64 0, ptr %24, align 8, !tbaa !41
  ret i32 0
}